target datalayout = "e-m:e-p270:32:32-p271:32:32-p272:64:64-i64:64-i128:128-f80:128-n8:16:32:64-S128"
target triple = "x86_64-pc-linux-gnu"

%struct.jpeg_decompress_struct = type { ptr, ptr, ptr, ptr, i32, i32, ptr, i32, i32, i32, i32, i32, i32, i32, double, i32, i32, i32, i32, i32, i32, i32, i32, i32, i32, i32, i32, i32, i32, i32, i32, i32, i32, ptr, i32, i32, i32, i32, i32, ptr, [4 x ptr], [4 x ptr], [4 x ptr], i32, ptr, i32, i32, [16 x i8], [16 x i8], [16 x i8], i32, i32, i8, i8, i8, i16, i16, i32, i8, i32, ptr, i32, i32, i32, i32, ptr, i32, [4 x ptr], i32, i32, i32, [10 x i32], i32, i32, i32, i32, i32, ptr, ptr, ptr, ptr, ptr, ptr, ptr, ptr, ptr, ptr, ptr }
%struct.my_coef_controller = type { %struct.jpeg_d_coef_controller, i32, i32, i32, [10 x ptr], [10 x ptr], ptr }
%struct.jpeg_d_coef_controller = type { ptr, ptr, ptr, ptr, ptr }
%struct.jpeg_component_info = type { i32, i32, i32, i32, i32, i32, i32, i32, i32, i32, i32, i32, i32, i32, i32, i32, i32, i32, i32, ptr, ptr }

; Function Attrs: nounwind uwtable
define internal void @start_iMCU_row(ptr noundef %0) #0 {
  %2 = alloca ptr, align 8
  %3 = alloca ptr, align 8
  store ptr %0, ptr %2, align 8
  %4 = load ptr, ptr %2, align 8
  %5 = getelementptr inbounds %struct.jpeg_decompress_struct, ptr %4, i32 0, i32 79
  %6 = load ptr, ptr %5, align 8
  store ptr %6, ptr %3, align 8
  %7 = load ptr, ptr %2, align 8
  %8 = getelementptr inbounds %struct.jpeg_decompress_struct, ptr %7, i32 0, i32 66
  %9 = load i32, ptr %8, align 8
  %10 = icmp sgt i32 %9, 1
  br i1 %10, label %11, label %14

11:                                               ; preds = %1
  %12 = load ptr, ptr %3, align 8
  %13 = getelementptr inbounds %struct.my_coef_controller, ptr %12, i32 0, i32 3
  store i32 1, ptr %13, align 8
  br label %42

14:                                               ; preds = %1
  %15 = load ptr, ptr %2, align 8
  %16 = getelementptr inbounds %struct.jpeg_decompress_struct, ptr %15, i32 0, i32 36
  %17 = load i32, ptr %16, align 8
  %18 = load ptr, ptr %2, align 8
  %19 = getelementptr inbounds %struct.jpeg_decompress_struct, ptr %18, i32 0, i32 64
  %20 = load i32, ptr %19, align 4
  %21 = sub i32 %20, 1
  %22 = icmp ult i32 %17, %21
  br i1 %22, label %23, label %32

23:                                               ; preds = %14
  %24 = load ptr, ptr %2, align 8
  %25 = getelementptr inbounds %struct.jpeg_decompress_struct, ptr %24, i32 0, i32 67
  %26 = getelementptr inbounds [4 x ptr], ptr %25, i64 0, i64 0
  %27 = load ptr, ptr %26, align 8
  %28 = getelementptr inbounds %struct.jpeg_component_info, ptr %27, i32 0, i32 3
  %29 = load i32, ptr %28, align 4
  %30 = load ptr, ptr %3, align 8
  %31 = getelementptr inbounds %struct.my_coef_controller, ptr %30, i32 0, i32 3
  store i32 %29, ptr %31, align 8
  br label %41

32:                                               ; preds = %14
  %33 = load ptr, ptr %2, align 8
  %34 = getelementptr inbounds %struct.jpeg_decompress_struct, ptr %33, i32 0, i32 67
  %35 = getelementptr inbounds [4 x ptr], ptr %34, i64 0, i64 0
  %36 = load ptr, ptr %35, align 8
  %37 = getelementptr inbounds %struct.jpeg_component_info, ptr %36, i32 0, i32 18
  %38 = load i32, ptr %37, align 8
  %39 = load ptr, ptr %3, align 8
  %40 = getelementptr inbounds %struct.my_coef_controller, ptr %39, i32 0, i32 3
  store i32 %38, ptr %40, align 8
  br label %41

41:                                               ; preds = %32, %23
  br label %42

42:                                               ; preds = %41, %11
  %43 = load ptr, ptr %3, align 8
  %44 = getelementptr inbounds %struct.my_coef_controller, ptr %43, i32 0, i32 1
  store i32 0, ptr %44, align 8
  %45 = load ptr, ptr %3, align 8
  %46 = getelementptr inbounds %struct.my_coef_controller, ptr %45, i32 0, i32 2
  store i32 0, ptr %46, align 4
  ret void
}

; Function Attrs: nounwind uwtable
define internal void @start_input_pass(ptr noundef %0) #0 {
  %2 = alloca ptr, align 8
  store ptr %0, ptr %2, align 8
  %3 = load ptr, ptr %2, align 8
  %4 = getelementptr inbounds %struct.jpeg_decompress_struct, ptr %3, i32 0, i32 36
  store i32 0, ptr %4, align 8
  %5 = load ptr, ptr %2, align 8
  call void @start_iMCU_row(ptr noundef %5)
  ret void
}